; Function Attrs: mustprogress nounwind uwtable
define void @_Z11GetFilePathPKwPwm(ptr noundef %0, ptr noundef %1, i64 noundef %2) local_unnamed_addr #8 {
  %4 = icmp eq i64 %2, 0
  br i1 %4, label %39, label %5

5:                                                ; preds = %3
  %6 = add i64 %2, -1
  %7 = tail call i64 @wcslen(ptr noundef readonly %0) #18
  %8 = and i64 %7, 4294967295
  br label %9

9:                                                ; preds = %12, %5
  %indvars.iv.i = phi i64 [ %13, %12 ], [ %8, %5 ]
  %10 = trunc nuw i64 %indvars.iv.i to i32
  %11 = icmp sgt i32 %10, 0
  br i1 %11, label %12, label %_Z11PointToNamePKw.exit

12:                                               ; preds = %9
  %13 = add nsw i64 %indvars.iv.i, -1
  %14 = getelementptr inbounds nuw i32, ptr %0, i64 %13
  %15 = load i32, ptr %14, align 4
  %16 = icmp eq i32 %15, 47
  br i1 %16, label %17, label %9, !llvm.loop !4

17:                                               ; preds = %12
  %18 = getelementptr inbounds nuw i32, ptr %0, i64 %indvars.iv.i
  br label %_Z11PointToNamePKw.exit

_Z11PointToNamePKw.exit:                          ; preds = %9, %17
  %.011.i = phi ptr [ %18, %17 ], [ %0, %9 ]
  %19 = ptrtoint ptr %.011.i to i64
  %20 = ptrtoint ptr %0 to i64
  %21 = sub i64 %19, %20
  %22 = ashr exact i64 %21, 2
  %23 = icmp ult i64 %6, %22
  br i1 %23, label %35, label %.preheader

.preheader:                                       ; preds = %_Z11PointToNamePKw.exit, %26
  %indvars.iv.i12 = phi i64 [ %27, %26 ], [ %8, %_Z11PointToNamePKw.exit ]
  %24 = trunc nuw i64 %indvars.iv.i12 to i32
  %25 = icmp sgt i32 %24, 0
  br i1 %25, label %26, label %_Z11PointToNamePKw.exit14

26:                                               ; preds = %.preheader
  %27 = add nsw i64 %indvars.iv.i12, -1
  %28 = getelementptr inbounds nuw i32, ptr %0, i64 %27
  %29 = load i32, ptr %28, align 4
  %30 = icmp eq i32 %29, 47
  br i1 %30, label %31, label %.preheader, !llvm.loop !4

31:                                               ; preds = %26
  %32 = getelementptr inbounds nuw i32, ptr %0, i64 %indvars.iv.i12
  %.pre = ptrtoint ptr %32 to i64
  br label %_Z11PointToNamePKw.exit14

_Z11PointToNamePKw.exit14:                        ; preds = %.preheader, %31
  %.pre-phi = phi i64 [ %.pre, %31 ], [ %20, %.preheader ]
  %33 = sub i64 %.pre-phi, %20
  %34 = ashr exact i64 %33, 2
  br label %35

35:                                               ; preds = %_Z11PointToNamePKw.exit, %_Z11PointToNamePKw.exit14
  %36 = phi i64 [ %34, %_Z11PointToNamePKw.exit14 ], [ %6, %_Z11PointToNamePKw.exit ]
  %37 = tail call ptr @wcsncpy(ptr noundef %1, ptr noundef %0, i64 noundef %36) #19
  %38 = getelementptr inbounds i32, ptr %1, i64 %36
  store i32 0, ptr %38, align 4
  br label %39

39:                                               ; preds = %3, %35
  ret void
}